target datalayout = "e-m:e-p270:32:32-p271:32:32-p272:64:64-i64:64-i128:128-f80:128-n8:16:32:64-S128"
target triple = "x86_64-pc-linux-gnu"

%"class.gmx::KeyValueTreeValue" = type { %"class.gmx::Any" }
%"class.gmx::Any" = type { %"class.std::unique_ptr" }
%"class.std::unique_ptr" = type { %"struct.std::__uniq_ptr_data" }
%"struct.std::__uniq_ptr_data" = type { %"class.std::__uniq_ptr_impl" }
%"class.std::__uniq_ptr_impl" = type { %"class.std::tuple" }
%"class.std::tuple" = type { %"struct.std::_Tuple_impl" }
%"struct.std::_Tuple_impl" = type { %"struct.std::_Head_base.22" }
%"struct.std::_Head_base.22" = type { ptr }
%"class.gmx::Any::IContent" = type { ptr }
%"class.std::type_info" = type { ptr, ptr }
%class.anon.113 = type { i8 }
%"class.gmx::Any::Content.115" = type <{ %"class.gmx::Any::IContent", i8, [7 x i8] }>

@_ZTIc = external constant ptr
@.str.5 = private unnamed_addr constant [17 x i8] c"value != nullptr\00", align 1
@.str.6 = private unnamed_addr constant [23 x i8] c"Cast to incorrect type\00", align 1
@__PRETTY_FUNCTION__._ZZNK3gmx3Any4castINS_18KeyValueTreeObjectEEERKT_vENKUlvE_clEv = private unnamed_addr constant [61 x i8] c"auto gmx::Any::cast()::(anonymous class)::operator()() const\00", align 1
@.str.7 = private unnamed_addr constant [143 x i8] c"generated/home/dtcxzyw/WorkSpace/Projects/compilers/llvm-opt-benchmark/bench/gromacs/gromacs/src/gromacs/utility/include/gromacs/utility/any.h\00", align 1

; Function Attrs: mustprogress nounwind uwtable
define linkonce_odr noundef nonnull align 8 dereferenceable(8) ptr @_ZNSt10_Head_baseILm0EPN3gmx3Any8IContentELb0EE7_M_headERKS4_(ptr noundef nonnull align 8 dereferenceable(8) %0) #1 comdat align 2 {
  %2 = alloca ptr, align 8
  store ptr %0, ptr %2, align 8, !tbaa !137
  %3 = load ptr, ptr %2, align 8, !tbaa !137
  %4 = getelementptr inbounds nuw %"struct.std::_Head_base.22", ptr %3, i32 0, i32 0
  ret ptr %4
}

; Function Attrs: mustprogress nounwind uwtable
define linkonce_odr noundef nonnull align 8 dereferenceable(8) ptr @_ZNSt11_Tuple_implILm0EJPN3gmx3Any8IContentESt14default_deleteIS2_EEE7_M_headERKS6_(ptr noundef nonnull align 8 dereferenceable(8) %0) #1 comdat align 2 {
  %2 = alloca ptr, align 8
  store ptr %0, ptr %2, align 8, !tbaa !135
  %3 = load ptr, ptr %2, align 8, !tbaa !135
  %4 = call noundef nonnull align 8 dereferenceable(8) ptr @_ZNSt10_Head_baseILm0EPN3gmx3Any8IContentELb0EE7_M_headERKS4_(ptr noundef nonnull align 8 dereferenceable(8) %3) #2
  ret ptr %4
}

; Function Attrs: mustprogress nounwind uwtable
define linkonce_odr noundef nonnull align 8 dereferenceable(8) ptr @_ZSt12__get_helperILm0EPN3gmx3Any8IContentEJSt14default_deleteIS2_EEERKT0_RKSt11_Tuple_implIXT_EJS6_DpT1_EE(ptr noundef nonnull align 8 dereferenceable(8) %0) #1 comdat {
  %2 = alloca ptr, align 8
  store ptr %0, ptr %2, align 8, !tbaa !135
  %3 = load ptr, ptr %2, align 8, !tbaa !135
  %4 = call noundef nonnull align 8 dereferenceable(8) ptr @_ZNSt11_Tuple_implILm0EJPN3gmx3Any8IContentESt14default_deleteIS2_EEE7_M_headERKS6_(ptr noundef nonnull align 8 dereferenceable(8) %3) #2
  ret ptr %4
}

; Function Attrs: mustprogress nounwind uwtable
define linkonce_odr noundef zeroext i1 @_ZNKSt10unique_ptrIN3gmx3Any8IContentESt14default_deleteIS2_EEcvbEv(ptr noundef nonnull align 8 dereferenceable(8) %0) #1 comdat align 2 {
  %2 = alloca ptr, align 8
  store ptr %0, ptr %2, align 8, !tbaa !123
  %3 = load ptr, ptr %2, align 8
  %4 = call noundef ptr @_ZNKSt10unique_ptrIN3gmx3Any8IContentESt14default_deleteIS2_EE3getEv(ptr noundef nonnull align 8 dereferenceable(8) %3) #2
  %5 = icmp eq ptr %4, null
  %6 = select i1 %5, i1 false, i1 true
  ret i1 %6
}

; Function Attrs: mustprogress nounwind uwtable
define linkonce_odr noundef nonnull align 8 dereferenceable(8) ptr @_ZSt3getILm0EJPN3gmx3Any8IContentESt14default_deleteIS2_EEERKNSt13tuple_elementIXT_ESt5tupleIJDpT0_EEE4typeERKSA_(ptr noundef nonnull align 8 dereferenceable(8) %0) #1 comdat {
  %2 = alloca ptr, align 8
  store ptr %0, ptr %2, align 8, !tbaa !133
  %3 = load ptr, ptr %2, align 8, !tbaa !133
  %4 = call noundef nonnull align 8 dereferenceable(8) ptr @_ZSt12__get_helperILm0EPN3gmx3Any8IContentEJSt14default_deleteIS2_EEERKT0_RKSt11_Tuple_implIXT_EJS6_DpT1_EE(ptr noundef nonnull align 8 dereferenceable(8) %3) #2
  ret ptr %4
}

; Function Attrs: mustprogress nounwind uwtable
define linkonce_odr noundef ptr @_ZNKSt9type_info4nameEv(ptr noundef nonnull align 8 dereferenceable(16) %0) #1 comdat align 2 {
  %2 = alloca ptr, align 8
  store ptr %0, ptr %2, align 8, !tbaa !94
  %3 = load ptr, ptr %2, align 8
  %4 = getelementptr inbounds nuw %"class.std::type_info", ptr %3, i32 0, i32 1
  %5 = load ptr, ptr %4, align 8, !tbaa !125
  %6 = getelementptr inbounds i8, ptr %5, i64 0
  %7 = load i8, ptr %6, align 1, !tbaa !104
  %8 = sext i8 %7 to i32
  %9 = icmp eq i32 %8, 42
  br i1 %9, label %10, label %14

10:                                               ; preds = %1
  %11 = getelementptr inbounds nuw %"class.std::type_info", ptr %3, i32 0, i32 1
  %12 = load ptr, ptr %11, align 8, !tbaa !125
  %13 = getelementptr inbounds i8, ptr %12, i64 1
  br label %17

14:                                               ; preds = %1
  %15 = getelementptr inbounds nuw %"class.std::type_info", ptr %3, i32 0, i32 1
  %16 = load ptr, ptr %15, align 8, !tbaa !125
  br label %17

17:                                               ; preds = %14, %10
  %18 = phi ptr [ %13, %10 ], [ %16, %14 ]
  ret ptr %18
}

; Function Attrs: inlinehint mustprogress nounwind uwtable
define linkonce_odr noundef zeroext i1 @_ZSteqIN3gmx3Any8IContentESt14default_deleteIS2_EEbRKSt10unique_ptrIT_T0_EDn(ptr noundef nonnull align 8 dereferenceable(8) %0, ptr %1) #9 comdat {
  %3 = alloca ptr, align 8
  %4 = alloca ptr, align 8
  store ptr %0, ptr %3, align 8, !tbaa !123
  store ptr %1, ptr %4, align 8, !tbaa !127
  %5 = load ptr, ptr %3, align 8, !tbaa !123
  %6 = call noundef zeroext i1 @_ZNKSt10unique_ptrIN3gmx3Any8IContentESt14default_deleteIS2_EEcvbEv(ptr noundef nonnull align 8 dereferenceable(8) %5) #2
  %7 = xor i1 %6, true
  ret i1 %7
}

; Function Attrs: mustprogress nounwind uwtable
define linkonce_odr noundef ptr @_ZNKSt15__uniq_ptr_implIN3gmx3Any8IContentESt14default_deleteIS2_EE6_M_ptrEv(ptr noundef nonnull align 8 dereferenceable(8) %0) #1 comdat align 2 {
  %2 = alloca ptr, align 8
  store ptr %0, ptr %2, align 8, !tbaa !129
  %3 = load ptr, ptr %2, align 8
  %4 = getelementptr inbounds nuw %"class.std::__uniq_ptr_impl", ptr %3, i32 0, i32 0
  %5 = call noundef nonnull align 8 dereferenceable(8) ptr @_ZSt3getILm0EJPN3gmx3Any8IContentESt14default_deleteIS2_EEERKNSt13tuple_elementIXT_ESt5tupleIJDpT0_EEE4typeERKSA_(ptr noundef nonnull align 8 dereferenceable(8) %4) #2
  %6 = load ptr, ptr %5, align 8, !tbaa !131
  ret ptr %6
}

; Function Attrs: inlinehint mustprogress nounwind uwtable
define linkonce_odr noundef zeroext i1 @_ZNKSt9type_infoeqERKS_(ptr noundef nonnull align 8 dereferenceable(16) %0, ptr noundef nonnull align 8 dereferenceable(16) %1) #9 comdat align 2 {
  %3 = alloca i1, align 1
  %4 = alloca ptr, align 8
  %5 = alloca ptr, align 8
  store ptr %0, ptr %4, align 8, !tbaa !94
  store ptr %1, ptr %5, align 8, !tbaa !94
  %6 = load ptr, ptr %4, align 8
  %7 = getelementptr inbounds nuw %"class.std::type_info", ptr %6, i32 0, i32 1
  %8 = load ptr, ptr %7, align 8, !tbaa !125
  %9 = load ptr, ptr %5, align 8, !tbaa !94
  %10 = getelementptr inbounds nuw %"class.std::type_info", ptr %9, i32 0, i32 1
  %11 = load ptr, ptr %10, align 8, !tbaa !125
  %12 = icmp eq ptr %8, %11
  br i1 %12, label %13, label %14

13:                                               ; preds = %2
  store i1 true, ptr %3, align 1
  br label %30

14:                                               ; preds = %2
  %15 = getelementptr inbounds nuw %"class.std::type_info", ptr %6, i32 0, i32 1
  %16 = load ptr, ptr %15, align 8, !tbaa !125
  %17 = getelementptr inbounds i8, ptr %16, i64 0
  %18 = load i8, ptr %17, align 1, !tbaa !104
  %19 = sext i8 %18 to i32
  %20 = icmp ne i32 %19, 42
  br i1 %20, label %21, label %28

21:                                               ; preds = %14
  %22 = getelementptr inbounds nuw %"class.std::type_info", ptr %6, i32 0, i32 1
  %23 = load ptr, ptr %22, align 8, !tbaa !125
  %24 = load ptr, ptr %5, align 8, !tbaa !94
  %25 = call noundef ptr @_ZNKSt9type_info4nameEv(ptr noundef nonnull align 8 dereferenceable(16) %24) #2
  %26 = call i32 @strcmp(ptr noundef %23, ptr noundef %25) #2
  %27 = icmp eq i32 %26, 0
  br label %28

28:                                               ; preds = %21, %14
  %29 = phi i1 [ false, %14 ], [ %27, %21 ]
  store i1 %29, ptr %3, align 1
  br label %30

30:                                               ; preds = %28, %13
  %31 = load i1, ptr %3, align 1
  ret i1 %31
}

; Function Attrs: mustprogress nounwind uwtable
define linkonce_odr noundef ptr @_ZNKSt10unique_ptrIN3gmx3Any8IContentESt14default_deleteIS2_EEptEv(ptr noundef nonnull align 8 dereferenceable(8) %0) #1 comdat align 2 {
  %2 = alloca ptr, align 8
  store ptr %0, ptr %2, align 8, !tbaa !123
  %3 = load ptr, ptr %2, align 8
  %4 = call noundef ptr @_ZNKSt10unique_ptrIN3gmx3Any8IContentESt14default_deleteIS2_EE3getEv(ptr noundef nonnull align 8 dereferenceable(8) %3) #2
  ret ptr %4
}

; Function Attrs: mustprogress nounwind uwtable
define linkonce_odr noundef zeroext i1 @_ZNK3gmx3Any7isEmptyEv(ptr noundef nonnull align 8 dereferenceable(8) %0) #1 comdat align 2 {
  %2 = alloca ptr, align 8
  store ptr %0, ptr %2, align 8, !tbaa !121
  %3 = load ptr, ptr %2, align 8
  %4 = getelementptr inbounds nuw %"class.gmx::Any", ptr %3, i32 0, i32 0
  %5 = call noundef zeroext i1 @_ZSteqIN3gmx3Any8IContentESt14default_deleteIS2_EEbRKSt10unique_ptrIT_T0_EDn(ptr noundef nonnull align 8 dereferenceable(8) %4, ptr null) #2
  ret i1 %5
}

; Function Attrs: mustprogress nounwind uwtable
define linkonce_odr noundef ptr @_ZNKSt10unique_ptrIN3gmx3Any8IContentESt14default_deleteIS2_EE3getEv(ptr noundef nonnull align 8 dereferenceable(8) %0) #1 comdat align 2 {
  %2 = alloca ptr, align 8
  store ptr %0, ptr %2, align 8, !tbaa !123
  %3 = load ptr, ptr %2, align 8
  %4 = getelementptr inbounds nuw %"class.std::unique_ptr", ptr %3, i32 0, i32 0
  %5 = call noundef ptr @_ZNKSt15__uniq_ptr_implIN3gmx3Any8IContentESt14default_deleteIS2_EE6_M_ptrEv(ptr noundef nonnull align 8 dereferenceable(8) %4) #2
  ret ptr %5
}

; Function Attrs: mustprogress uwtable
define linkonce_odr noundef zeroext i1 @_ZNK3gmx3Any6isTypeIcEEbv(ptr noundef nonnull align 8 dereferenceable(8) %0) #4 comdat align 2 {
  %2 = alloca ptr, align 8
  store ptr %0, ptr %2, align 8, !tbaa !121
  %3 = load ptr, ptr %2, align 8
  %4 = call noundef zeroext i1 @_ZNK3gmx3Any7isEmptyEv(ptr noundef nonnull align 8 dereferenceable(8) %3)
  br i1 %4, label %13, label %5

5:                                                ; preds = %1
  %6 = getelementptr inbounds nuw %"class.gmx::Any", ptr %3, i32 0, i32 0
  %7 = call noundef ptr @_ZNKSt10unique_ptrIN3gmx3Any8IContentESt14default_deleteIS2_EEptEv(ptr noundef nonnull align 8 dereferenceable(8) %6) #2
  %8 = load ptr, ptr %7, align 8, !tbaa !66
  %9 = getelementptr inbounds ptr, ptr %8, i64 2
  %10 = load ptr, ptr %9, align 8
  %11 = call noundef nonnull align 8 dereferenceable(16) ptr %10(ptr noundef nonnull align 8 dereferenceable(8) %7)
  %12 = call noundef zeroext i1 @_ZNKSt9type_infoeqERKS_(ptr noundef nonnull align 8 dereferenceable(16) %11, ptr noundef nonnull align 8 dereferenceable(16) @_ZTIc) #2
  br label %13

13:                                               ; preds = %5, %1
  %14 = phi i1 [ false, %1 ], [ %12, %5 ]
  ret i1 %14
}

; Function Attrs: inlinehint mustprogress uwtable
define linkonce_odr void @_ZZNK3gmx3Any4castIcEERKT_vENKUlvE_clEv(ptr noundef nonnull align 1 dereferenceable(1) %0) #7 comdat align 2 {
  %2 = alloca ptr, align 8
  store ptr %0, ptr %2, align 8, !tbaa !68
  call void @_ZN3gmx8internal13assertHandlerEPKcS2_S2_S2_i(ptr noundef @.str.5, ptr noundef @.str.6, ptr noundef @__PRETTY_FUNCTION__._ZZNK3gmx3Any4castINS_18KeyValueTreeObjectEEERKT_vENKUlvE_clEv, ptr noundef @.str.7, i32 noundef 190) #21
  unreachable
}

; Function Attrs: mustprogress uwtable
define linkonce_odr noundef ptr @_ZNK3gmx3Any7tryCastIcEEPKT_v(ptr noundef nonnull align 8 dereferenceable(8) %0) #4 comdat align 2 {
  %2 = alloca ptr, align 8
  store ptr %0, ptr %2, align 8, !tbaa !121
  %3 = load ptr, ptr %2, align 8
  %4 = call noundef zeroext i1 @_ZNK3gmx3Any6isTypeIcEEbv(ptr noundef nonnull align 8 dereferenceable(8) %3)
  br i1 %4, label %5, label %9

5:                                                ; preds = %1
  %6 = getelementptr inbounds nuw %"class.gmx::Any", ptr %3, i32 0, i32 0
  %7 = call noundef ptr @_ZNKSt10unique_ptrIN3gmx3Any8IContentESt14default_deleteIS2_EE3getEv(ptr noundef nonnull align 8 dereferenceable(8) %6) #2
  %8 = getelementptr inbounds nuw %"class.gmx::Any::Content.115", ptr %7, i32 0, i32 1
  br label %10

9:                                                ; preds = %1
  br label %10

10:                                               ; preds = %9, %5
  %11 = phi ptr [ %8, %5 ], [ null, %9 ]
  ret ptr %11
}

; Function Attrs: mustprogress uwtable
define linkonce_odr noundef nonnull align 1 dereferenceable(1) ptr @_ZNK3gmx3Any4castIcEERKT_v(ptr noundef nonnull align 8 dereferenceable(8) %0) #4 comdat align 2 {
  %2 = alloca ptr, align 8
  %3 = alloca ptr, align 8
  %4 = alloca %class.anon.113, align 1
  store ptr %0, ptr %2, align 8, !tbaa !121
  %5 = load ptr, ptr %2, align 8
  call void @llvm.lifetime.start.p0(i64 8, ptr %3) #2
  %6 = call noundef ptr @_ZNK3gmx3Any7tryCastIcEEPKT_v(ptr noundef nonnull align 8 dereferenceable(8) %5)
  store ptr %6, ptr %3, align 8, !tbaa !118
  %7 = load ptr, ptr %3, align 8, !tbaa !118
  %8 = icmp ne ptr %7, null
  call void @llvm.lifetime.start.p0(i64 1, ptr %4) #2
  br i1 %8, label %9, label %10

9:                                                ; preds = %1
  br label %11

10:                                               ; preds = %1
  call void @_ZZNK3gmx3Any4castIcEERKT_vENKUlvE_clEv(ptr noundef nonnull align 1 dereferenceable(1) %4)
  br label %11

11:                                               ; preds = %10, %9
  call void @llvm.lifetime.end.p0(i64 1, ptr %4) #2
  %12 = load ptr, ptr %3, align 8, !tbaa !118
  call void @llvm.lifetime.end.p0(i64 8, ptr %3) #2
  ret ptr %12
}

; Function Attrs: mustprogress uwtable
define internal void @_ZN3gmx12_GLOBAL__N_119SerializationTraitsIcE9serializeEcPNS_11ISerializerE(i8 noundef signext %0, ptr noundef %1) #4 align 2 {
  %3 = alloca i8, align 1
  %4 = alloca ptr, align 8
  store i8 %0, ptr %3, align 1, !tbaa !104
  store ptr %1, ptr %4, align 8, !tbaa !64
  %5 = load ptr, ptr %4, align 8, !tbaa !64
  %6 = load ptr, ptr %5, align 8, !tbaa !66
  %7 = getelementptr inbounds ptr, ptr %6, i64 5
  %8 = load ptr, ptr %7, align 8
  call void %8(ptr noundef nonnull align 8 dereferenceable(8) %5, ptr noundef %3)
  ret void
}

; Function Attrs: mustprogress uwtable
define linkonce_odr noundef nonnull align 1 dereferenceable(1) ptr @_ZNK3gmx17KeyValueTreeValue4castIcEERKT_v(ptr noundef nonnull align 8 dereferenceable(8) %0) #4 comdat align 2 {
  %2 = alloca ptr, align 8
  store ptr %0, ptr %2, align 8, !tbaa !96
  %3 = load ptr, ptr %2, align 8
  %4 = getelementptr inbounds nuw %"class.gmx::KeyValueTreeValue", ptr %3, i32 0, i32 0
  %5 = call noundef nonnull align 1 dereferenceable(1) ptr @_ZNK3gmx3Any4castIcEERKT_v(ptr noundef nonnull align 8 dereferenceable(8) %4)
  ret ptr %5
}

; Function Attrs: mustprogress uwtable
define internal void @_ZN3gmx12_GLOBAL__N_118serializeValueTypeIcEEvRKNS_17KeyValueTreeValueEPNS_11ISerializerE(ptr noundef nonnull align 8 dereferenceable(8) %0, ptr noundef %1) #4 {
  %3 = alloca ptr, align 8
  %4 = alloca ptr, align 8
  store ptr %0, ptr %3, align 8, !tbaa !96
  store ptr %1, ptr %4, align 8, !tbaa !64
  %5 = load ptr, ptr %3, align 8, !tbaa !96
  %6 = call noundef nonnull align 1 dereferenceable(1) ptr @_ZNK3gmx17KeyValueTreeValue4castIcEERKT_v(ptr noundef nonnull align 8 dereferenceable(8) %5)
  %7 = load i8, ptr %6, align 1, !tbaa !104
  %8 = load ptr, ptr %4, align 8, !tbaa !64
  call void @_ZN3gmx12_GLOBAL__N_119SerializationTraitsIcE9serializeEcPNS_11ISerializerE(i8 noundef signext %7, ptr noundef %8)
  ret void
}